target datalayout = "e-m:e-p270:32:32-p271:32:32-p272:64:64-i64:64-i128:128-f80:128-n8:16:32:64-S128"
target triple = "x86_64-pc-linux-gnu"

%"class.sat::literal" = type { i32 }
%"class.arith::solver" = type { %"class.euf::th_euf_solver.base", [4 x i8], %class.int_hashtable, i8, %class.scoped_ptr_vector, i32, %class.vector.5, %class.vector.6, i32, i32, i32, i32, %class.svector.7, %class.svector.9, %class.svector.11, %class.svector.13, %class.svector.15, %class.svector.9, ptr, %class.ptr_vector.17, %class.ptr_vector.19, %class.ptr_vector.17, %class.vector.21, %class.u_map, %class.vector.21, %class.svector.1, %class.svector.1, i32, %class.svector.24, i32, %class.indexed_uint_set, i32, %"struct.lp_api::stats", %class.svector.26, %class.scoped_ptr, i8, %class.scoped_ptr.28, %class.scoped_ptr.29, %"class.arith::solver::resource_limit", %class.ptr_vector.30, %class.symbol, %"class.std::vector", %"class.lp::lp_bound_propagator", %class.vector.41, %"class.lp::explanation", %class.svector.9, %class.svector.9, %class.vector.5, %class.svector.11, %class.vector.44, %"class.nla::lemma", %class.arith_util, i8, %class.vector.41, %class.vector.41, %class.vector.41, %class.vector.5, %class.map.46, i32, %"class.sat::literal", %class.ref_vector, %class.obj_ref, i8, [7 x i8], %"class.arith::arith_proof_hint_builder" }
%"class.euf::th_euf_solver.base" = type <{ %"class.euf::th_solver", ptr, %class.ptr_vector, %class.svector.1, i32 }>
%"class.euf::th_solver" = type { %"class.sat::extension", %"class.euf::th_model_builder", %"class.euf::th_decompile", %"class.euf::th_internalizer", ptr }
%"class.sat::extension" = type { ptr, i8, i32, %class.symbol, ptr }
%"class.euf::th_model_builder" = type { ptr }
%"class.euf::th_decompile" = type { ptr }
%"class.euf::th_internalizer" = type { ptr, %class.ptr_vector, %class.svector }
%class.svector = type { %class.vector.0 }
%class.vector.0 = type { ptr }
%class.ptr_vector = type { %class.vector }
%class.vector = type { ptr }
%class.int_hashtable = type { %class.core_hashtable.base, [4 x i8] }
%class.core_hashtable.base = type <{ %"struct.arith::solver::var_value_hash", %"struct.arith::solver::var_value_eq", ptr, i32, i32, i32 }>
%"struct.arith::solver::var_value_hash" = type { ptr }
%"struct.arith::solver::var_value_eq" = type { ptr }
%class.scoped_ptr_vector = type { %class.ptr_vector.3 }
%class.ptr_vector.3 = type { %class.vector.4 }
%class.vector.4 = type { ptr }
%class.vector.6 = type { ptr }
%class.svector.7 = type { %class.vector.8 }
%class.vector.8 = type { ptr }
%class.svector.13 = type { %class.vector.14 }
%class.vector.14 = type { ptr }
%class.svector.15 = type { %class.vector.16 }
%class.vector.16 = type { ptr }
%class.ptr_vector.19 = type { %class.vector.20 }
%class.vector.20 = type { ptr }
%class.ptr_vector.17 = type { %class.vector.18 }
%class.vector.18 = type { ptr }
%class.u_map = type { %class.map }
%class.map = type { %class.table2map }
%class.table2map = type { %class.core_hashtable.22 }
%class.core_hashtable.22 = type <{ ptr, i32, i32, i32, [4 x i8] }>
%class.vector.21 = type { ptr }
%class.svector.1 = type { %class.vector.2 }
%class.vector.2 = type { ptr }
%class.svector.24 = type { %class.vector.25 }
%class.vector.25 = type { ptr }
%class.indexed_uint_set = type { i32, %class.svector.1, %class.svector.1 }
%"struct.lp_api::stats" = type { i32, i32, i32, i32, i32, i32, i32, i32, i32, i32, i32, i32, i32, i32, i32, i32 }
%class.svector.26 = type { %class.vector.27 }
%class.vector.27 = type { ptr }
%class.scoped_ptr = type { ptr }
%class.scoped_ptr.28 = type { ptr }
%class.scoped_ptr.29 = type { ptr }
%"class.arith::solver::resource_limit" = type { %"class.lp::lp_resource_limit", ptr }
%"class.lp::lp_resource_limit" = type { ptr }
%class.ptr_vector.30 = type { %class.vector.31 }
%class.vector.31 = type { ptr }
%class.symbol = type { ptr }
%"class.std::vector" = type { %"struct.std::_Vector_base" }
%"struct.std::_Vector_base" = type { %"struct.std::_Vector_base<lp::implied_bound, std_allocator<lp::implied_bound>>::_Vector_impl" }
%"struct.std::_Vector_base<lp::implied_bound, std_allocator<lp::implied_bound>>::_Vector_impl" = type { %"struct.std::_Vector_base<lp::implied_bound, std_allocator<lp::implied_bound>>::_Vector_impl_data" }
%"struct.std::_Vector_base<lp::implied_bound, std_allocator<lp::implied_bound>>::_Vector_impl_data" = type { ptr, ptr, ptr }
%"class.lp::lp_bound_propagator" = type { %class.uint_set, %class.u_map.32, %class.u_map.32, ptr, ptr, %class.map.37, %class.map.37, %class.map.37, ptr }
%class.uint_set = type { %class.svector.1 }
%class.u_map.32 = type { %class.map.33 }
%class.map.33 = type { %class.table2map.34 }
%class.table2map.34 = type { %class.core_hashtable.35 }
%class.core_hashtable.35 = type <{ ptr, i32, i32, i32, [4 x i8] }>
%class.map.37 = type { %class.table2map.38 }
%class.table2map.38 = type { %class.core_hashtable.39 }
%class.core_hashtable.39 = type <{ ptr, i32, i32, i32, [4 x i8] }>
%"class.lp::explanation" = type { %class.vector.41, %class.hashtable }
%class.hashtable = type { %class.core_hashtable.base.43, [4 x i8] }
%class.core_hashtable.base.43 = type <{ ptr, i32, i32, i32 }>
%class.svector.9 = type { %class.vector.10 }
%class.vector.10 = type { ptr }
%class.svector.11 = type { %class.vector.12 }
%class.vector.12 = type { ptr }
%class.vector.44 = type { ptr }
%"class.nla::lemma" = type { %class.vector.45, %"class.lp::explanation" }
%class.vector.45 = type { ptr }
%class.arith_util = type { ptr, ptr }
%class.vector.41 = type { ptr }
%class.vector.5 = type { ptr }
%class.map.46 = type { %class.table2map.47 }
%class.table2map.47 = type { %class.core_hashtable.48 }
%class.core_hashtable.48 = type <{ ptr, i32, i32, i32, [4 x i8] }>
%class.ref_vector = type { %class.ref_vector_core }
%class.ref_vector_core = type { %class.ref_manager_wrapper, %class.ptr_vector.19 }
%class.ref_manager_wrapper = type { ptr }
%class.obj_ref = type { ptr, ptr }
%"class.arith::arith_proof_hint_builder" = type <{ %class.vector.50, %class.svector.51, i32, i32, i32, i32, i32, [4 x i8] }>
%class.vector.50 = type { ptr }
%class.svector.51 = type { %class.vector.52 }
%class.vector.52 = type { ptr }

; Function Attrs: mustprogress nounwind uwtable
define linkonce_odr hidden noundef i32 @_ZNK6vectorIP3appLb0EjE4sizeEv(ptr noundef nonnull align 8 dereferenceable(8) %0) #4 comdat align 2 {
  %2 = alloca i32, align 4
  %3 = alloca ptr, align 8
  store ptr %0, ptr %3, align 8, !tbaa !219
  %4 = load ptr, ptr %3, align 8
  %5 = getelementptr inbounds nuw %class.vector.18, ptr %4, i32 0, i32 0
  %6 = load ptr, ptr %5, align 8, !tbaa !221
  %7 = icmp eq ptr %6, null
  br i1 %7, label %8, label %9

8:                                                ; preds = %1
  store i32 0, ptr %2, align 4
  br label %14

9:                                                ; preds = %1
  %10 = getelementptr inbounds nuw %class.vector.18, ptr %4, i32 0, i32 0
  %11 = load ptr, ptr %10, align 8, !tbaa !221
  %12 = getelementptr inbounds i32, ptr %11, i64 -1
  %13 = load i32, ptr %12, align 4, !tbaa !8
  store i32 %13, ptr %2, align 4
  br label %14

14:                                               ; preds = %9, %8
  %15 = load i32, ptr %2, align 4
  ret i32 %15
}

; Function Attrs: mustprogress uwtable
define linkonce_odr hidden noundef ptr @_ZN6vectorIP3appLb0EjE3endEv(ptr noundef nonnull align 8 dereferenceable(8) %0) #6 comdat align 2 {
  %2 = alloca ptr, align 8
  store ptr %0, ptr %2, align 8, !tbaa !219
  %3 = load ptr, ptr %2, align 8
  %4 = getelementptr inbounds nuw %class.vector.18, ptr %3, i32 0, i32 0
  %5 = load ptr, ptr %4, align 8, !tbaa !221
  %6 = call noundef i32 @_ZNK6vectorIP3appLb0EjE4sizeEv(ptr noundef nonnull align 8 dereferenceable(8) %3)
  %7 = zext i32 %6 to i64
  %8 = getelementptr inbounds nuw ptr, ptr %5, i64 %7
  ret ptr %8
}

; Function Attrs: mustprogress nounwind uwtable
define linkonce_odr hidden noundef ptr @_ZN6vectorIP3appLb0EjE5beginEv(ptr noundef nonnull align 8 dereferenceable(8) %0) #4 comdat align 2 {
  %2 = alloca ptr, align 8
  store ptr %0, ptr %2, align 8, !tbaa !219
  %3 = load ptr, ptr %2, align 8
  %4 = getelementptr inbounds nuw %class.vector.18, ptr %3, i32 0, i32 0
  %5 = load ptr, ptr %4, align 8, !tbaa !221
  ret ptr %5
}

; Function Attrs: mustprogress uwtable
define hidden noundef zeroext i1 @_ZN5arith6solver14check_bv_termsEv(ptr noundef nonnull align 8 dereferenceable(1000) %0) #6 align 2 {
  %2 = alloca i1, align 1
  %3 = alloca ptr, align 8
  %4 = alloca ptr, align 8
  %5 = alloca ptr, align 8
  %6 = alloca ptr, align 8
  %7 = alloca i32, align 4
  %8 = alloca ptr, align 8
  store ptr %0, ptr %3, align 8, !tbaa !16
  %9 = load ptr, ptr %3, align 8
  call void @llvm.lifetime.start.p0(i64 8, ptr %4) #3
  %10 = getelementptr inbounds nuw %"class.arith::solver", ptr %9, i32 0, i32 21
  store ptr %10, ptr %4, align 8, !tbaa !117
  call void @llvm.lifetime.start.p0(i64 8, ptr %5) #3
  %11 = load ptr, ptr %4, align 8, !tbaa !117
  %12 = call noundef ptr @_ZN6vectorIP3appLb0EjE5beginEv(ptr noundef nonnull align 8 dereferenceable(8) %11)
  store ptr %12, ptr %5, align 8, !tbaa !119
  call void @llvm.lifetime.start.p0(i64 8, ptr %6) #3
  %13 = load ptr, ptr %4, align 8, !tbaa !117
  %14 = call noundef ptr @_ZN6vectorIP3appLb0EjE3endEv(ptr noundef nonnull align 8 dereferenceable(8) %13)
  store ptr %14, ptr %6, align 8, !tbaa !119
  br label %15

15:                                               ; preds = %34, %1
  %16 = load ptr, ptr %5, align 8, !tbaa !119
  %17 = load ptr, ptr %6, align 8, !tbaa !119
  %18 = icmp ne ptr %16, %17
  br i1 %18, label %20, label %19

19:                                               ; preds = %15
  store i32 2, ptr %7, align 4
  br label %37

20:                                               ; preds = %15
  call void @llvm.lifetime.start.p0(i64 8, ptr %8) #3
  %21 = load ptr, ptr %5, align 8, !tbaa !119
  %22 = load ptr, ptr %21, align 8, !tbaa !27
  store ptr %22, ptr %8, align 8, !tbaa !27
  %23 = load ptr, ptr %8, align 8, !tbaa !27
  %24 = call noundef zeroext i1 @_ZN5arith6solver13check_bv_termEP3app(ptr noundef nonnull align 8 dereferenceable(1000) %9, ptr noundef %23)
  br i1 %24, label %30, label %25

25:                                               ; preds = %20
  %26 = getelementptr inbounds nuw %"class.arith::solver", ptr %9, i32 0, i32 32
  %27 = getelementptr inbounds nuw %"struct.lp_api::stats", ptr %26, i32 0, i32 15
  %28 = load i32, ptr %27, align 4, !tbaa !121
  %29 = add i32 %28, 1
  store i32 %29, ptr %27, align 4, !tbaa !121
  store i1 false, ptr %2, align 1
  store i32 1, ptr %7, align 4
  br label %31

30:                                               ; preds = %20
  store i32 0, ptr %7, align 4
  br label %31

31:                                               ; preds = %30, %25
  call void @llvm.lifetime.end.p0(i64 8, ptr %8) #3
  %32 = load i32, ptr %7, align 4
  switch i32 %32, label %37 [
    i32 0, label %33
  ]

33:                                               ; preds = %31
  br label %34

34:                                               ; preds = %33
  %35 = load ptr, ptr %5, align 8, !tbaa !119
  %36 = getelementptr inbounds nuw ptr, ptr %35, i32 1
  store ptr %36, ptr %5, align 8, !tbaa !119
  br label %15

37:                                               ; preds = %31, %19
  call void @llvm.lifetime.end.p0(i64 8, ptr %6) #3
  call void @llvm.lifetime.end.p0(i64 8, ptr %5) #3
  call void @llvm.lifetime.end.p0(i64 8, ptr %4) #3
  %38 = load i32, ptr %7, align 4
  switch i32 %38, label %42 [
    i32 2, label %39
    i32 1, label %40
  ]

39:                                               ; preds = %37
  store i1 true, ptr %2, align 1
  br label %40

40:                                               ; preds = %39, %37
  %41 = load i1, ptr %2, align 1
  ret i1 %41

42:                                               ; preds = %37
  unreachable
}