; Function Attrs: mustprogress uwtable
define hidden noundef zeroext i1 @_ZN5arith6solver14check_bv_termsEv(ptr noundef nonnull align 8 dereferenceable(1000) %0) local_unnamed_addr #4 align 2 {
  %2 = getelementptr inbounds nuw i8, ptr %0, i64 280
  %3 = load ptr, ptr %2, align 8, !tbaa !145
  %4 = icmp eq ptr %3, null
  br i1 %4, label %.loopexit, label %_ZN6vectorIP3appLb0EjE3endEv.exit

_ZN6vectorIP3appLb0EjE3endEv.exit:                ; preds = %1
  %5 = getelementptr inbounds i8, ptr %3, i64 -4
  %6 = load i32, ptr %5, align 4, !tbaa !66
  %7 = zext i32 %6 to i64
  %8 = getelementptr inbounds nuw ptr, ptr %3, i64 %7
  %.not15 = icmp eq i32 %6, 0
  br i1 %.not15, label %.loopexit, label %.critedge

9:                                                ; preds = %.critedge
  %10 = getelementptr inbounds nuw i8, ptr %.01216, i64 8
  %.not = icmp eq ptr %10, %8
  br i1 %.not, label %.loopexit, label %.critedge

.critedge:                                        ; preds = %_ZN6vectorIP3appLb0EjE3endEv.exit, %9
  %.01216 = phi ptr [ %10, %9 ], [ %3, %_ZN6vectorIP3appLb0EjE3endEv.exit ]
  %11 = load ptr, ptr %.01216, align 8, !tbaa !148
  %12 = tail call noundef zeroext i1 @_ZN5arith6solver13check_bv_termEP3app(ptr noundef nonnull align 8 dereferenceable(1000) %0, ptr noundef %11)
  br i1 %12, label %9, label %13

13:                                               ; preds = %.critedge
  %14 = getelementptr inbounds nuw i8, ptr %0, i64 456
  %15 = load i32, ptr %14, align 8, !tbaa !150
  %16 = add i32 %15, 1
  store i32 %16, ptr %14, align 8, !tbaa !150
  br label %.loopexit

.loopexit:                                        ; preds = %9, %1, %_ZN6vectorIP3appLb0EjE3endEv.exit, %13
  %.not14 = phi i1 [ false, %13 ], [ true, %_ZN6vectorIP3appLb0EjE3endEv.exit ], [ true, %1 ], [ true, %9 ]
  ret i1 %.not14
}